; Function Attrs: mustprogress nofree norecurse nosync nounwind memory(argmem: readwrite) uwtable
define internal void @_ZN2cvL6iPow8sEPKaPaii(ptr noundef readonly captures(none) %0, ptr noundef writeonly captures(none) %1, i32 noundef %2, i32 noundef %3) #18 {
  %5 = alloca [5 x i8], align 1
  %6 = icmp slt i32 %3, 0
  br i1 %6, label %23, label %.preheader.i

.preheader.i:                                     ; preds = %4
  %7 = icmp sgt i32 %2, 0
  br i1 %7, label %.lr.ph46.i, label %_ZN2cvL6iPow_iIaiEEvPKT_PS1_ii.exit

.lr.ph46.i:                                       ; preds = %.preheader.i
  %8 = icmp samesign ugt i32 %3, 1
  %wide.trip.count53.i = zext nneg i32 %2 to i64
  br i1 %8, label %.lr.ph.us.i, label %.lr.ph46.split.i

.lr.ph.us.i:                                      ; preds = %.lr.ph46.i, %._crit_edge.us.i
  %indvars.iv50.i = phi i64 [ %indvars.iv.next51.i, %._crit_edge.us.i ], [ 0, %.lr.ph46.i ]
  %9 = getelementptr inbounds nuw i8, ptr %0, i64 %indvars.iv50.i
  %10 = load i8, ptr %9, align 1, !tbaa !143
  %11 = sext i8 %10 to i32
  br label %12

12:                                               ; preds = %12, %.lr.ph.us.i
  %.043.us.i = phi i32 [ %3, %.lr.ph.us.i ], [ %16, %12 ]
  %.03442.us.i = phi i32 [ %11, %.lr.ph.us.i ], [ %15, %12 ]
  %.03541.us.i = phi i32 [ 1, %.lr.ph.us.i ], [ %spec.select.us.i, %12 ]
  %13 = and i32 %.043.us.i, 1
  %.not.us.i = icmp eq i32 %13, 0
  %14 = select i1 %.not.us.i, i32 1, i32 %.03442.us.i
  %spec.select.us.i = mul nsw i32 %14, %.03541.us.i
  %15 = mul nsw i32 %.03442.us.i, %.03442.us.i
  %16 = lshr i32 %.043.us.i, 1
  %17 = icmp ugt i32 %.043.us.i, 3
  br i1 %17, label %12, label %._crit_edge.us.i, !llvm.loop !233

._crit_edge.us.i:                                 ; preds = %12
  %18 = mul nsw i32 %spec.select.us.i, %15
  %19 = tail call i32 @llvm.smax.i32(i32 %18, i32 -128)
  %20 = tail call i32 @llvm.smin.i32(i32 %19, i32 127)
  %21 = trunc nsw i32 %20 to i8
  %22 = getelementptr inbounds nuw i8, ptr %1, i64 %indvars.iv50.i
  store i8 %21, ptr %22, align 1, !tbaa !143
  %indvars.iv.next51.i = add nuw nsw i64 %indvars.iv50.i, 1
  %exitcond54.not.i = icmp eq i64 %indvars.iv.next51.i, %wide.trip.count53.i
  br i1 %exitcond54.not.i, label %_ZN2cvL6iPow_iIaiEEvPKT_PS1_ii.exit, label %.lr.ph.us.i, !llvm.loop !234

23:                                               ; preds = %4
  call void @llvm.lifetime.start.p0(i64 5, ptr nonnull %5) #27
  %24 = icmp eq i32 %3, -1
  %25 = sext i1 %24 to i8
  store i8 %25, ptr %5, align 1, !tbaa !143
  %26 = getelementptr inbounds nuw i8, ptr %5, i64 1
  %27 = and i32 %3, 1
  %.not40.i = icmp eq i32 %27, 0
  %28 = select i1 %.not40.i, i8 1, i8 -1
  store i8 %28, ptr %26, align 1, !tbaa !143
  %29 = getelementptr inbounds nuw i8, ptr %5, i64 2
  store i8 127, ptr %29, align 1, !tbaa !143
  %30 = getelementptr inbounds nuw i8, ptr %5, i64 3
  store i8 1, ptr %30, align 1, !tbaa !143
  %31 = getelementptr inbounds nuw i8, ptr %5, i64 4
  %32 = zext i1 %24 to i8
  store i8 %32, ptr %31, align 1, !tbaa !143
  %33 = icmp sgt i32 %2, 0
  br i1 %33, label %.lr.ph.preheader.i, label %._crit_edge.i

.lr.ph.preheader.i:                               ; preds = %23
  %wide.trip.count58.i = zext nneg i32 %2 to i64
  br label %.lr.ph.i

._crit_edge.i:                                    ; preds = %43, %23
  call void @llvm.lifetime.end.p0(i64 5, ptr nonnull %5) #27
  br label %_ZN2cvL6iPow_iIaiEEvPKT_PS1_ii.exit

.lr.ph.i:                                         ; preds = %43, %.lr.ph.preheader.i
  %indvars.iv55.i = phi i64 [ 0, %.lr.ph.preheader.i ], [ %indvars.iv.next56.i, %43 ]
  %34 = getelementptr inbounds nuw i8, ptr %0, i64 %indvars.iv55.i
  %35 = load i8, ptr %34, align 1, !tbaa !143
  %36 = tail call i8 @llvm.abs.i8(i8 %35, i1 false)
  %37 = icmp ult i8 %36, 3
  br i1 %37, label %38, label %43

38:                                               ; preds = %.lr.ph.i
  %39 = sext i8 %35 to i64
  %40 = add nsw i64 %39, 2
  %41 = getelementptr inbounds [5 x i8], ptr %5, i64 0, i64 %40
  %42 = load i8, ptr %41, align 1, !tbaa !143
  br label %43

43:                                               ; preds = %38, %.lr.ph.i
  %44 = phi i8 [ %42, %38 ], [ 0, %.lr.ph.i ]
  %45 = getelementptr inbounds nuw i8, ptr %1, i64 %indvars.iv55.i
  store i8 %44, ptr %45, align 1, !tbaa !143
  %indvars.iv.next56.i = add nuw nsw i64 %indvars.iv55.i, 1
  %exitcond59.not.i = icmp eq i64 %indvars.iv.next56.i, %wide.trip.count58.i
  br i1 %exitcond59.not.i, label %._crit_edge.i, label %.lr.ph.i, !llvm.loop !235

.lr.ph46.split.i:                                 ; preds = %.lr.ph46.i, %.lr.ph46.split.i
  %indvars.iv.i = phi i64 [ %indvars.iv.next.i, %.lr.ph46.split.i ], [ 0, %.lr.ph46.i ]
  %46 = getelementptr inbounds nuw i8, ptr %0, i64 %indvars.iv.i
  %47 = load i8, ptr %46, align 1, !tbaa !143
  %48 = getelementptr inbounds nuw i8, ptr %1, i64 %indvars.iv.i
  store i8 %47, ptr %48, align 1, !tbaa !143
  %indvars.iv.next.i = add nuw nsw i64 %indvars.iv.i, 1
  %exitcond.not.i = icmp eq i64 %indvars.iv.next.i, %wide.trip.count53.i
  br i1 %exitcond.not.i, label %_ZN2cvL6iPow_iIaiEEvPKT_PS1_ii.exit, label %.lr.ph46.split.i, !llvm.loop !234

_ZN2cvL6iPow_iIaiEEvPKT_PS1_ii.exit:              ; preds = %.lr.ph46.split.i, %._crit_edge.us.i, %.preheader.i, %._crit_edge.i
  ret void
}